; Function Attrs: nounwind uwtable
define dso_local zeroext i1 @try_consume(ptr noundef %0, i32 noundef %1) local_unnamed_addr #0 {
  %3 = getelementptr inbounds i8, ptr %0, i64 40
  %4 = load i32, ptr %3, align 8
  %5 = icmp eq i32 %4, %1
  %6 = icmp ne i32 %4, 189
  %or.cond.not = and i1 %6, %5
  br i1 %or.cond.not, label %7, label %advance.exit

7:                                                ; preds = %2
  %8 = getelementptr inbounds i8, ptr %0, i64 72
  %9 = getelementptr inbounds i8, ptr %0, i64 184
  %10 = load i32, ptr %9, align 8
  store i32 %10, ptr %3, align 8
  %11 = getelementptr inbounds i8, ptr %0, i64 136
  tail call void @llvm.memcpy.p0.p0.i64(ptr noundef nonnull align 8 dereferenceable(40) %0, ptr noundef nonnull align 8 dereferenceable(40) %11, i64 40, i1 false)
  %12 = getelementptr inbounds i8, ptr %0, i64 56
  %13 = getelementptr inbounds i8, ptr %0, i64 48
  %14 = load i64, ptr %13, align 8
  store i64 %14, ptr %12, align 8
  %15 = getelementptr inbounds i8, ptr %0, i64 176
  %16 = load i64, ptr %15, align 8
  store i64 %16, ptr %13, align 8
  %17 = tail call zeroext i1 @lexer_next_token(ptr noundef nonnull %8) #10
  br i1 %17, label %advance.exit, label %18

18:                                               ; preds = %7
  tail call void @exit_compiler(i32 noundef 1) #11
  unreachable

advance.exit:                                     ; preds = %7, %2
  ret i1 %5
}